#include <math.h>
#include <stdio.h>
#include <stdlib.h>
#include <string.h>


int main()
{
    int count[300] = {0};
    int c = 0, d = 1;
    while ( (c = getchar()) != '\n' && c != '\0' )
    {
        if ( c == ' ' )
        {
            d = -1;
            continue;
        }
        count[c] += d;
    }
    int i = 0;
    for ( i = 0; i < 300 && count[i] == 0; i++ )
        ;
    if ( i == 300 )
        printf("YES");
    else
        printf("NO");
    return 0;
}
