; ModuleID = '36/1594.c'
source_filename = "36/1594.c"
target datalayout = "e-m:e-p270:32:32-p271:32:32-p272:64:64-i64:64-f80:128-n8:16:32:64-S128"
target triple = "x86_64-pc-linux-gnu"

@.str = private unnamed_addr constant [4 x i8] c"YES\00", align 1
@.str.1 = private unnamed_addr constant [3 x i8] c"NO\00", align 1

; Function Attrs: noinline nounwind uwtable
define dso_local i32 @main() #0 {
  %1 = alloca i32, align 4
  %2 = alloca [300 x i32], align 16
  %3 = alloca i32, align 4
  %4 = alloca i32, align 4
  %5 = alloca i32, align 4
  store i32 0, i32* %1, align 4
  %6 = bitcast [300 x i32]* %2 to i8*
  call void @llvm.memset.p0i8.i64(i8* align 16 %6, i8 0, i64 1200, i1 false)
  store i32 0, i32* %3, align 4
  store i32 1, i32* %4, align 4
  br label %7

7:                                                ; preds = %19, %18, %0
  %8 = call i32 @getchar()
  store i32 %8, i32* %3, align 4
  %9 = icmp ne i32 %8, 10
  br i1 %9, label %10, label %13

10:                                               ; preds = %7
  %11 = load i32, i32* %3, align 4
  %12 = icmp ne i32 %11, 0
  br label %13

13:                                               ; preds = %10, %7
  %14 = phi i1 [ false, %7 ], [ %12, %10 ]
  br i1 %14, label %15, label %26

15:                                               ; preds = %13
  %16 = load i32, i32* %3, align 4
  %17 = icmp eq i32 %16, 32
  br i1 %17, label %18, label %19

18:                                               ; preds = %15
  store i32 -1, i32* %4, align 4
  br label %7

19:                                               ; preds = %15
  %20 = load i32, i32* %4, align 4
  %21 = load i32, i32* %3, align 4
  %22 = sext i32 %21 to i64
  %23 = getelementptr inbounds [300 x i32], [300 x i32]* %2, i64 0, i64 %22
  %24 = load i32, i32* %23, align 4
  %25 = add nsw i32 %24, %20
  store i32 %25, i32* %23, align 4
  br label %7

26:                                               ; preds = %13
  store i32 0, i32* %5, align 4
  store i32 0, i32* %5, align 4
  br label %27

27:                                               ; preds = %39, %26
  %28 = load i32, i32* %5, align 4
  %29 = icmp slt i32 %28, 300
  br i1 %29, label %30, label %36

30:                                               ; preds = %27
  %31 = load i32, i32* %5, align 4
  %32 = sext i32 %31 to i64
  %33 = getelementptr inbounds [300 x i32], [300 x i32]* %2, i64 0, i64 %32
  %34 = load i32, i32* %33, align 4
  %35 = icmp eq i32 %34, 0
  br label %36

36:                                               ; preds = %30, %27
  %37 = phi i1 [ false, %27 ], [ %35, %30 ]
  br i1 %37, label %38, label %42

38:                                               ; preds = %36
  br label %39

39:                                               ; preds = %38
  %40 = load i32, i32* %5, align 4
  %41 = add nsw i32 %40, 1
  store i32 %41, i32* %5, align 4
  br label %27

42:                                               ; preds = %36
  %43 = load i32, i32* %5, align 4
  %44 = icmp eq i32 %43, 300
  br i1 %44, label %45, label %47

45:                                               ; preds = %42
  %46 = call i32 (i8*, ...) @printf(i8* getelementptr inbounds ([4 x i8], [4 x i8]* @.str, i64 0, i64 0))
  br label %49

47:                                               ; preds = %42
  %48 = call i32 (i8*, ...) @printf(i8* getelementptr inbounds ([3 x i8], [3 x i8]* @.str.1, i64 0, i64 0))
  br label %49

49:                                               ; preds = %47, %45
  ret i32 0
}

; Function Attrs: argmemonly nounwind willreturn
declare void @llvm.memset.p0i8.i64(i8* nocapture writeonly, i8, i64, i1 immarg) #1

declare dso_local i32 @getchar() #2

declare dso_local i32 @printf(i8*, ...) #2


!llvm.module.flags = !{!0}
!llvm.ident = !{!1}

!0 = !{i32 1, !"wchar_size", i32 4}
!1 = !{!"clang version 10.0.0-4ubuntu1 "}
